target datalayout = "e-m:e-p270:32:32-p271:32:32-p272:64:64-i64:64-i128:128-f80:128-n8:16:32:64-S128"
target triple = "x86_64-pc-linux-gnu"

%class.cmXMLParser = type { ptr, i32, ptr, ptr, ptr }

; Function Attrs: mustprogress uwtable
define dso_local noundef i32 @_ZN11cmXMLParser11ParseBufferEPKcm(ptr noundef nonnull align 8 dereferenceable(40) %0, ptr noundef %1, i64 noundef %2) unnamed_addr #7 align 2 {
  %4 = alloca i32, align 4
  %5 = alloca ptr, align 8
  %6 = alloca ptr, align 8
  %7 = alloca i64, align 8
  store ptr %0, ptr %5, align 8
  store ptr %1, ptr %6, align 8
  store i64 %2, ptr %7, align 8
  %8 = load ptr, ptr %5, align 8
  %9 = getelementptr inbounds %class.cmXMLParser, ptr %8, i32 0, i32 4
  %10 = load ptr, ptr %9, align 8
  %11 = load ptr, ptr %6, align 8
  %12 = load i64, ptr %7, align 8
  %13 = trunc i64 %12 to i32
  %14 = call i32 @XML_Parse(ptr noundef %10, ptr noundef %11, i32 noundef %13, i32 noundef 0)
  %15 = icmp ne i32 %14, 0
  br i1 %15, label %20, label %16

16:                                               ; preds = %3
  %17 = load ptr, ptr %8, align 8
  %18 = getelementptr inbounds ptr, ptr %17, i64 11
  %19 = load ptr, ptr %18, align 8
  call void %19(ptr noundef nonnull align 8 dereferenceable(40) %8)
  store i32 0, ptr %4, align 4
  br label %21

20:                                               ; preds = %3
  store i32 1, ptr %4, align 4
  br label %21

21:                                               ; preds = %20, %16
  %22 = load i32, ptr %4, align 4
  ret i32 %22
}