; Function Attrs: mustprogress uwtable
define dso_local noundef i32 @_ZN11cmXMLParser11ParseBufferEPKcm(ptr noundef nonnull align 8 dereferenceable(40) %0, ptr noundef %1, i64 noundef %2) unnamed_addr #7 align 2 {
  %4 = getelementptr inbounds i8, ptr %0, i64 32
  %5 = load ptr, ptr %4, align 8
  %6 = trunc i64 %2 to i32
  %7 = tail call i32 @XML_Parse(ptr noundef %5, ptr noundef %1, i32 noundef %6, i32 noundef 0)
  %.not = icmp eq i32 %7, 0
  br i1 %.not, label %8, label %12

8:                                                ; preds = %3
  %9 = load ptr, ptr %0, align 8
  %10 = getelementptr inbounds i8, ptr %9, i64 88
  %11 = load ptr, ptr %10, align 8
  tail call void %11(ptr noundef nonnull align 8 dereferenceable(40) %0)
  br label %12

12:                                               ; preds = %3, %8
  %.0 = phi i32 [ 0, %8 ], [ 1, %3 ]
  ret i32 %.0
}